target datalayout = "e-m:e-p270:32:32-p271:32:32-p272:64:64-i64:64-i128:128-f80:128-n8:16:32:64-S128"
target triple = "x86_64-pc-linux-gnu"

%struct.struct_it8 = type { i32, i32, i32, [255 x %struct._Table], ptr, %struct._SubAllocator, i32, i32, i32, double, ptr, ptr, ptr, ptr, ptr, i32, [20 x ptr], i32, ptr, [128 x i8], ptr }
%struct._Table = type { [1024 x i8], i32, i32, i32, ptr, ptr, ptr }
%struct._SubAllocator = type { ptr, i32, i32 }

@.str.81 = private unnamed_addr constant [25 x i8] c"Table %d out of sequence\00", align 1

; Function Attrs: nounwind uwtable
define internal ptr @GetDataFormat(ptr noundef %0, i32 noundef %1) #0 {
  %3 = alloca ptr, align 8
  %4 = alloca ptr, align 8
  %5 = alloca i32, align 4
  %6 = alloca ptr, align 8
  store ptr %0, ptr %4, align 8
  store i32 %1, ptr %5, align 4
  %7 = load ptr, ptr %4, align 8
  %8 = call ptr @GetTable(ptr noundef %7)
  store ptr %8, ptr %6, align 8
  %9 = load ptr, ptr %6, align 8
  %10 = getelementptr inbounds %struct._Table, ptr %9, i32 0, i32 5
  %11 = load ptr, ptr %10, align 8
  %12 = icmp ne ptr %11, null
  br i1 %12, label %13, label %21

13:                                               ; preds = %2
  %14 = load ptr, ptr %6, align 8
  %15 = getelementptr inbounds %struct._Table, ptr %14, i32 0, i32 5
  %16 = load ptr, ptr %15, align 8
  %17 = load i32, ptr %5, align 4
  %18 = sext i32 %17 to i64
  %19 = getelementptr inbounds ptr, ptr %16, i64 %18
  %20 = load ptr, ptr %19, align 8
  store ptr %20, ptr %3, align 8
  br label %22

21:                                               ; preds = %2
  store ptr null, ptr %3, align 8
  br label %22

22:                                               ; preds = %21, %13
  %23 = load ptr, ptr %3, align 8
  ret ptr %23
}

; Function Attrs: nounwind uwtable
define internal ptr @GetTable(ptr noundef %0) #0 {
  %2 = alloca ptr, align 8
  %3 = alloca ptr, align 8
  store ptr %0, ptr %3, align 8
  %4 = load ptr, ptr %3, align 8
  %5 = getelementptr inbounds %struct.struct_it8, ptr %4, i32 0, i32 1
  %6 = load i32, ptr %5, align 4
  %7 = load ptr, ptr %3, align 8
  %8 = getelementptr inbounds %struct.struct_it8, ptr %7, i32 0, i32 0
  %9 = load i32, ptr %8, align 8
  %10 = icmp uge i32 %6, %9
  br i1 %10, label %11, label %20

11:                                               ; preds = %1
  %12 = load ptr, ptr %3, align 8
  %13 = load ptr, ptr %3, align 8
  %14 = getelementptr inbounds %struct.struct_it8, ptr %13, i32 0, i32 1
  %15 = load i32, ptr %14, align 4
  %16 = call i32 (ptr, ptr, ...) @SynError(ptr noundef %12, ptr noundef @.str.81, i32 noundef %15)
  %17 = load ptr, ptr %3, align 8
  %18 = getelementptr inbounds %struct.struct_it8, ptr %17, i32 0, i32 3
  %19 = getelementptr inbounds [255 x %struct._Table], ptr %18, i64 0, i64 0
  store ptr %19, ptr %2, align 8
  br label %29

20:                                               ; preds = %1
  %21 = load ptr, ptr %3, align 8
  %22 = getelementptr inbounds %struct.struct_it8, ptr %21, i32 0, i32 3
  %23 = getelementptr inbounds [255 x %struct._Table], ptr %22, i64 0, i64 0
  %24 = load ptr, ptr %3, align 8
  %25 = getelementptr inbounds %struct.struct_it8, ptr %24, i32 0, i32 1
  %26 = load i32, ptr %25, align 4
  %27 = zext i32 %26 to i64
  %28 = getelementptr inbounds %struct._Table, ptr %23, i64 %27
  store ptr %28, ptr %2, align 8
  br label %29

29:                                               ; preds = %20, %11
  %30 = load ptr, ptr %2, align 8
  ret ptr %30
}

; Function Attrs: nounwind uwtable
define internal ptr @GetData(ptr noundef %0, i32 noundef %1, i32 noundef %2) #0 {
  %4 = alloca ptr, align 8
  %5 = alloca ptr, align 8
  %6 = alloca i32, align 4
  %7 = alloca i32, align 4
  %8 = alloca ptr, align 8
  %9 = alloca i32, align 4
  %10 = alloca i32, align 4
  store ptr %0, ptr %5, align 8
  store i32 %1, ptr %6, align 4
  store i32 %2, ptr %7, align 4
  %11 = load ptr, ptr %5, align 8
  %12 = call ptr @GetTable(ptr noundef %11)
  store ptr %12, ptr %8, align 8
  %13 = load ptr, ptr %8, align 8
  %14 = getelementptr inbounds %struct._Table, ptr %13, i32 0, i32 1
  %15 = load i32, ptr %14, align 8
  store i32 %15, ptr %9, align 4
  %16 = load ptr, ptr %8, align 8
  %17 = getelementptr inbounds %struct._Table, ptr %16, i32 0, i32 2
  %18 = load i32, ptr %17, align 4
  store i32 %18, ptr %10, align 4
  %19 = load i32, ptr %6, align 4
  %20 = icmp slt i32 %19, 0
  br i1 %20, label %32, label %21

21:                                               ; preds = %3
  %22 = load i32, ptr %6, align 4
  %23 = load i32, ptr %10, align 4
  %24 = icmp sge i32 %22, %23
  br i1 %24, label %32, label %25

25:                                               ; preds = %21
  %26 = load i32, ptr %7, align 4
  %27 = icmp slt i32 %26, 0
  br i1 %27, label %32, label %28

28:                                               ; preds = %25
  %29 = load i32, ptr %7, align 4
  %30 = load i32, ptr %9, align 4
  %31 = icmp sge i32 %29, %30
  br i1 %31, label %32, label %33

32:                                               ; preds = %28, %25, %21, %3
  store ptr null, ptr %4, align 8
  br label %51

33:                                               ; preds = %28
  %34 = load ptr, ptr %8, align 8
  %35 = getelementptr inbounds %struct._Table, ptr %34, i32 0, i32 6
  %36 = load ptr, ptr %35, align 8
  %37 = icmp ne ptr %36, null
  br i1 %37, label %39, label %38

38:                                               ; preds = %33
  store ptr null, ptr %4, align 8
  br label %51

39:                                               ; preds = %33
  %40 = load ptr, ptr %8, align 8
  %41 = getelementptr inbounds %struct._Table, ptr %40, i32 0, i32 6
  %42 = load ptr, ptr %41, align 8
  %43 = load i32, ptr %6, align 4
  %44 = load i32, ptr %9, align 4
  %45 = mul nsw i32 %43, %44
  %46 = load i32, ptr %7, align 4
  %47 = add nsw i32 %45, %46
  %48 = sext i32 %47 to i64
  %49 = getelementptr inbounds ptr, ptr %42, i64 %48
  %50 = load ptr, ptr %49, align 8
  store ptr %50, ptr %4, align 8
  br label %51

51:                                               ; preds = %39, %38, %32
  %52 = load ptr, ptr %4, align 8
  ret ptr %52
}

; Function Attrs: nounwind uwtable
define internal i32 @LocateSample(ptr noundef %0, ptr noundef %1) #0 {
  %3 = alloca i32, align 4
  %4 = alloca ptr, align 8
  %5 = alloca ptr, align 8
  %6 = alloca i32, align 4
  %7 = alloca ptr, align 8
  %8 = alloca ptr, align 8
  store ptr %0, ptr %4, align 8
  store ptr %1, ptr %5, align 8
  %9 = load ptr, ptr %4, align 8
  %10 = call ptr @GetTable(ptr noundef %9)
  store ptr %10, ptr %8, align 8
  store i32 0, ptr %6, align 4
  br label %11

11:                                               ; preds = %32, %2
  %12 = load i32, ptr %6, align 4
  %13 = load ptr, ptr %8, align 8
  %14 = getelementptr inbounds %struct._Table, ptr %13, i32 0, i32 1
  %15 = load i32, ptr %14, align 8
  %16 = icmp slt i32 %12, %15
  br i1 %16, label %17, label %35

17:                                               ; preds = %11
  %18 = load ptr, ptr %4, align 8
  %19 = load i32, ptr %6, align 4
  %20 = call ptr @GetDataFormat(ptr noundef %18, i32 noundef %19)
  store ptr %20, ptr %7, align 8
  %21 = load ptr, ptr %7, align 8
  %22 = icmp ne ptr %21, null
  br i1 %22, label %23, label %31

23:                                               ; preds = %17
  %24 = load ptr, ptr %7, align 8
  %25 = load ptr, ptr %5, align 8
  %26 = call i32 @cmsstrcasecmp(ptr noundef %24, ptr noundef %25)
  %27 = icmp eq i32 %26, 0
  br i1 %27, label %28, label %30

28:                                               ; preds = %23
  %29 = load i32, ptr %6, align 4
  store i32 %29, ptr %3, align 4
  br label %36

30:                                               ; preds = %23
  br label %31

31:                                               ; preds = %30, %17
  br label %32

32:                                               ; preds = %31
  %33 = load i32, ptr %6, align 4
  %34 = add nsw i32 %33, 1
  store i32 %34, ptr %6, align 4
  br label %11, !llvm.loop !34

35:                                               ; preds = %11
  store i32 -1, ptr %3, align 4
  br label %36

36:                                               ; preds = %35, %28
  %37 = load i32, ptr %3, align 4
  ret i32 %37
}

; Function Attrs: nounwind uwtable
define hidden ptr @cmsIT8GetData(ptr noundef %0, ptr noundef %1, ptr noundef %2) #0 {
  %4 = alloca ptr, align 8
  %5 = alloca ptr, align 8
  %6 = alloca ptr, align 8
  %7 = alloca ptr, align 8
  %8 = alloca ptr, align 8
  %9 = alloca i32, align 4
  %10 = alloca i32, align 4
  store ptr %0, ptr %5, align 8
  store ptr %1, ptr %6, align 8
  store ptr %2, ptr %7, align 8
  %11 = load ptr, ptr %5, align 8
  store ptr %11, ptr %8, align 8
  %12 = load ptr, ptr %8, align 8
  %13 = load ptr, ptr %7, align 8
  %14 = call i32 @LocateSample(ptr noundef %12, ptr noundef %13)
  store i32 %14, ptr %9, align 4
  %15 = load i32, ptr %9, align 4
  %16 = icmp slt i32 %15, 0
  br i1 %16, label %17, label %18

17:                                               ; preds = %3
  store ptr null, ptr %4, align 8
  br label %30

18:                                               ; preds = %3
  %19 = load ptr, ptr %8, align 8
  %20 = load ptr, ptr %6, align 8
  %21 = call i32 @LocatePatch(ptr noundef %19, ptr noundef %20)
  store i32 %21, ptr %10, align 4
  %22 = load i32, ptr %10, align 4
  %23 = icmp slt i32 %22, 0
  br i1 %23, label %24, label %25

24:                                               ; preds = %18
  store ptr null, ptr %4, align 8
  br label %30

25:                                               ; preds = %18
  %26 = load ptr, ptr %8, align 8
  %27 = load i32, ptr %10, align 4
  %28 = load i32, ptr %9, align 4
  %29 = call ptr @GetData(ptr noundef %26, i32 noundef %27, i32 noundef %28)
  store ptr %29, ptr %4, align 8
  br label %30

30:                                               ; preds = %25, %24, %17
  %31 = load ptr, ptr %4, align 8
  ret ptr %31
}