; Function Attrs: nounwind uwtable
define hidden ptr @cmsIT8GetData(ptr nocapture noundef %0, ptr noundef %1, ptr noundef %2) local_unnamed_addr #0 {
  %4 = getelementptr inbounds i8, ptr %0, i64 4
  %5 = load i32, ptr %4, align 4
  %6 = load i32, ptr %0, align 8
  %.not.i.i = icmp ult i32 %5, %6
  br i1 %.not.i.i, label %9, label %7

7:                                                ; preds = %3
  tail call void (ptr, ptr, ...) @SynError(ptr noundef nonnull %0, ptr noundef nonnull @.str.81, i32 noundef %5)
  %8 = getelementptr inbounds i8, ptr %0, i64 16
  br label %GetTable.exit.i

9:                                                ; preds = %3
  %10 = getelementptr inbounds i8, ptr %0, i64 16
  %11 = zext i32 %5 to i64
  %12 = getelementptr inbounds %struct._Table, ptr %10, i64 %11
  br label %GetTable.exit.i

GetTable.exit.i:                                  ; preds = %9, %7
  %.0.i.i = phi ptr [ %8, %7 ], [ %12, %9 ]
  %13 = getelementptr inbounds i8, ptr %.0.i.i, i64 1024
  %14 = load i32, ptr %13, align 8
  %15 = icmp sgt i32 %14, 0
  br i1 %15, label %.lr.ph.i, label %GetData.exit

.lr.ph.i:                                         ; preds = %GetTable.exit.i
  %16 = getelementptr inbounds i8, ptr %0, i64 16
  br label %17

17:                                               ; preds = %GetDataFormat.exit.thread.i, %.lr.ph.i
  %indvars.iv.i = phi i64 [ 0, %.lr.ph.i ], [ %indvars.iv.next.i, %GetDataFormat.exit.thread.i ]
  %18 = load i32, ptr %4, align 4
  %19 = load i32, ptr %0, align 8
  %.not.i.i.i = icmp ult i32 %18, %19
  br i1 %.not.i.i.i, label %21, label %20

20:                                               ; preds = %17
  tail call void (ptr, ptr, ...) @SynError(ptr noundef nonnull %0, ptr noundef nonnull @.str.81, i32 noundef %18)
  br label %GetTable.exit.i.i

21:                                               ; preds = %17
  %22 = zext i32 %18 to i64
  %23 = getelementptr inbounds %struct._Table, ptr %16, i64 %22
  br label %GetTable.exit.i.i

GetTable.exit.i.i:                                ; preds = %21, %20
  %.0.i.i.i = phi ptr [ %16, %20 ], [ %23, %21 ]
  %24 = getelementptr inbounds i8, ptr %.0.i.i.i, i64 1048
  %25 = load ptr, ptr %24, align 8
  %.not.i12.i = icmp eq ptr %25, null
  br i1 %.not.i12.i, label %GetDataFormat.exit.thread.i, label %GetDataFormat.exit.i

GetDataFormat.exit.i:                             ; preds = %GetTable.exit.i.i
  %26 = getelementptr inbounds ptr, ptr %25, i64 %indvars.iv.i
  %27 = load ptr, ptr %26, align 8
  %.not.i = icmp eq ptr %27, null
  br i1 %.not.i, label %GetDataFormat.exit.thread.i, label %28

28:                                               ; preds = %GetDataFormat.exit.i
  %29 = tail call i32 @cmsstrcasecmp(ptr noundef nonnull %27, ptr noundef %2) #17
  %30 = icmp eq i32 %29, 0
  br i1 %30, label %LocateSample.exit, label %GetDataFormat.exit.thread.i

GetDataFormat.exit.thread.i:                      ; preds = %28, %GetDataFormat.exit.i, %GetTable.exit.i.i
  %indvars.iv.next.i = add nuw nsw i64 %indvars.iv.i, 1
  %31 = load i32, ptr %13, align 8
  %32 = sext i32 %31 to i64
  %33 = icmp slt i64 %indvars.iv.next.i, %32
  br i1 %33, label %17, label %GetData.exit, !llvm.loop !53

LocateSample.exit:                                ; preds = %28
  %34 = trunc nuw nsw i64 %indvars.iv.i to i32
  %35 = tail call fastcc i32 @LocatePatch(ptr noundef nonnull %0, ptr noundef %1)
  %36 = icmp slt i32 %35, 0
  br i1 %36, label %GetData.exit, label %37

37:                                               ; preds = %LocateSample.exit
  %38 = load i32, ptr %4, align 4
  %39 = load i32, ptr %0, align 8
  %.not.i.i12 = icmp ult i32 %38, %39
  br i1 %.not.i.i12, label %41, label %40

40:                                               ; preds = %37
  tail call void (ptr, ptr, ...) @SynError(ptr noundef nonnull %0, ptr noundef nonnull @.str.81, i32 noundef %38)
  br label %44

41:                                               ; preds = %37
  %42 = zext i32 %38 to i64
  %43 = getelementptr inbounds %struct._Table, ptr %16, i64 %42
  br label %44

44:                                               ; preds = %40, %41
  %.0.i.i14 = phi ptr [ %16, %40 ], [ %43, %41 ]
  %45 = getelementptr inbounds i8, ptr %.0.i.i14, i64 1024
  %46 = load i32, ptr %45, align 8
  %47 = getelementptr inbounds i8, ptr %.0.i.i14, i64 1028
  %48 = load i32, ptr %47, align 4
  %49 = icmp sgt i32 %48, %35
  %.not.i15 = icmp sgt i32 %46, %34
  %or.cond20.i = select i1 %49, i1 %.not.i15, i1 false
  br i1 %or.cond20.i, label %50, label %GetData.exit

50:                                               ; preds = %44
  %51 = getelementptr inbounds i8, ptr %.0.i.i14, i64 1056
  %52 = load ptr, ptr %51, align 8
  %.not19.i = icmp eq ptr %52, null
  br i1 %.not19.i, label %GetData.exit, label %53

53:                                               ; preds = %50
  %54 = mul nsw i32 %46, %35
  %55 = add nuw nsw i32 %54, %34
  %56 = zext nneg i32 %55 to i64
  %57 = getelementptr inbounds ptr, ptr %52, i64 %56
  %58 = load ptr, ptr %57, align 8
  br label %GetData.exit

GetData.exit:                                     ; preds = %GetDataFormat.exit.thread.i, %GetTable.exit.i, %53, %50, %44, %LocateSample.exit
  %.0 = phi ptr [ null, %LocateSample.exit ], [ %58, %53 ], [ null, %44 ], [ null, %50 ], [ null, %GetTable.exit.i ], [ null, %GetDataFormat.exit.thread.i ]
  ret ptr %.0
}